; Function Attrs: mustprogress nounwind uwtable
define void @_ZN5faiss17IndexSplitVectorsD2Ev(ptr noundef nonnull align 8 dereferenceable(72) %0) unnamed_addr #0 align 2 personality ptr @__gxx_personality_v0 {
  store ptr getelementptr inbounds ({ [24 x ptr] }, ptr @_ZTVN5faiss17IndexSplitVectorsE, i64 0, i32 0, i64 2), ptr %0, align 8
  %2 = getelementptr inbounds i8, ptr %0, i64 36
  %3 = load i8, ptr %2, align 4
  %4 = and i8 %3, 1
  %.not = icmp eq i8 %4, 0
  %.phi.trans.insert = getelementptr inbounds i8, ptr %0, i64 40
  br i1 %.not, label %..loopexit_crit_edge, label %.preheader

..loopexit_crit_edge:                             ; preds = %1
  %.pre9 = load ptr, ptr %.phi.trans.insert, align 8
  br label %.loopexit

.preheader:                                       ; preds = %1
  %5 = getelementptr inbounds i8, ptr %0, i64 48
  %6 = load ptr, ptr %5, align 8
  %7 = load ptr, ptr %.phi.trans.insert, align 8
  %.not6 = icmp eq ptr %6, %7
  br i1 %.not6, label %.loopexit, label %.lr.ph

.lr.ph:                                           ; preds = %.preheader, %17
  %8 = phi ptr [ %18, %17 ], [ %7, %.preheader ]
  %9 = phi ptr [ %19, %17 ], [ %6, %.preheader ]
  %indvars.iv = phi i64 [ %indvars.iv.next, %17 ], [ 0, %.preheader ]
  %10 = getelementptr inbounds ptr, ptr %8, i64 %indvars.iv
  %11 = load ptr, ptr %10, align 8
  %12 = icmp eq ptr %11, null
  br i1 %12, label %17, label %13

13:                                               ; preds = %.lr.ph
  %14 = load ptr, ptr %11, align 8
  %15 = getelementptr inbounds i8, ptr %14, i64 8
  %16 = load ptr, ptr %15, align 8
  tail call void %16(ptr noundef nonnull align 8 dereferenceable(36) %11) #16
  %.pre = load ptr, ptr %5, align 8
  %.pre8 = load ptr, ptr %.phi.trans.insert, align 8
  br label %17

17:                                               ; preds = %.lr.ph, %13
  %18 = phi ptr [ %8, %.lr.ph ], [ %.pre8, %13 ]
  %19 = phi ptr [ %9, %.lr.ph ], [ %.pre, %13 ]
  %indvars.iv.next = add nuw nsw i64 %indvars.iv, 1
  %20 = ptrtoint ptr %19 to i64
  %21 = ptrtoint ptr %18 to i64
  %22 = sub i64 %20, %21
  %23 = ashr exact i64 %22, 3
  %24 = icmp ugt i64 %23, %indvars.iv.next
  br i1 %24, label %.lr.ph, label %.loopexit, !llvm.loop !34

.loopexit:                                        ; preds = %17, %..loopexit_crit_edge, %.preheader
  %25 = phi ptr [ %.pre9, %..loopexit_crit_edge ], [ %6, %.preheader ], [ %18, %17 ]
  %.not.i.i.i = icmp eq ptr %25, null
  br i1 %.not.i.i.i, label %_ZNSt6vectorIPN5faiss5IndexESaIS2_EED2Ev.exit, label %26

26:                                               ; preds = %.loopexit
  tail call void @_ZdlPv(ptr noundef nonnull %25) #20
  br label %_ZNSt6vectorIPN5faiss5IndexESaIS2_EED2Ev.exit

_ZNSt6vectorIPN5faiss5IndexESaIS2_EED2Ev.exit:    ; preds = %.loopexit, %26
  tail call void @_ZN5faiss5IndexD2Ev(ptr noundef nonnull align 8 dereferenceable(36) %0) #16
  ret void
}